; Function Attrs: nounwind uwtable
define internal void @recff_getmetatable(ptr noundef %0, ptr noundef readonly captures(none) %1) #0 {
  %3 = alloca %struct.RecordIndex, align 8
  %4 = getelementptr inbounds nuw i8, ptr %0, i64 160
  %5 = load ptr, ptr %4, align 8, !tbaa !37
  %6 = load i32, ptr %5, align 4, !tbaa !39
  %.not = icmp eq i32 %6, 0
  br i1 %.not, label %17, label %7

7:                                                ; preds = %2
  call void @llvm.lifetime.start.p0(i64 72, ptr nonnull %3) #9
  %8 = getelementptr inbounds nuw i8, ptr %3, i64 48
  store i32 %6, ptr %8, align 8, !tbaa !47
  %9 = load ptr, ptr %1, align 8, !tbaa !36
  %10 = load i64, ptr %9, align 8, !tbaa !4
  store i64 %10, ptr %3, align 8, !tbaa !4
  %11 = call i32 @lj_record_mm_lookup(ptr noundef nonnull %0, ptr noundef nonnull %3, i32 noundef 17) #9
  %.not7 = icmp eq i32 %11, 0
  %12 = load ptr, ptr %4, align 8, !tbaa !37
  %13 = getelementptr inbounds nuw i8, ptr %3, i64 60
  %14 = load i32, ptr %13, align 4
  %15 = getelementptr inbounds nuw i8, ptr %3, i64 64
  %16 = load i32, ptr %15, align 8
  %.sink = select i1 %.not7, i32 %14, i32 %16
  store i32 %.sink, ptr %12, align 4, !tbaa !39
  call void @llvm.lifetime.end.p0(i64 72, ptr nonnull %3) #9
  br label %17

17:                                               ; preds = %7, %2
  ret void
}